target datalayout = "e-m:e-p270:32:32-p271:32:32-p272:64:64-i64:64-i128:128-f80:128-n8:16:32:64-S128"
target triple = "x86_64-pc-linux-gnu"

%struct._rpc_prog_info_value = type { ptr, i32, i32, ptr, ptr }

@rpc_progs = global ptr null, align 8
@ett_rpc_unknown_program = internal global i32 0, align 4
@proto_rpc_unknown = internal global i32 0, align 4
@rpc_dissect_unknown_programs = internal global i8 0, align 1
@.str.329 = private unnamed_addr constant [23 x i8] c"Unknown RPC program %u\00", align 1

; Function Attrs: null_pointer_is_valid sspstrong uwtable
define internal ptr @looks_like_rpc_call(ptr noundef %0, i32 noundef %1) #0 {
  %3 = alloca ptr, align 8
  %4 = alloca ptr, align 8
  %5 = alloca i32, align 4
  %6 = alloca i32, align 4
  %7 = alloca ptr, align 8
  %8 = alloca i32, align 4
  %9 = alloca i32, align 4
  store ptr %0, ptr %4, align 8
  store i32 %1, ptr %5, align 4
  call void @llvm.lifetime.start.p0(i64 4, ptr %6) #18
  call void @llvm.lifetime.start.p0(i64 8, ptr %7) #18
  %10 = load ptr, ptr %4, align 8
  %11 = load i32, ptr %5, align 4
  %12 = call zeroext i1 @tvb_bytes_exist(ptr noundef %10, i32 noundef %11, i32 noundef 16)
  br i1 %12, label %14, label %13

13:                                               ; preds = %2
  store ptr null, ptr %3, align 8
  store i32 1, ptr %8, align 4
  br label %71

14:                                               ; preds = %2
  %15 = load ptr, ptr %4, align 8
  %16 = load i32, ptr %5, align 4
  %17 = add i32 %16, 12
  %18 = call i32 @tvb_get_ntohl(ptr noundef %15, i32 noundef %17)
  store i32 %18, ptr %6, align 4
  %19 = load ptr, ptr %4, align 8
  %20 = load i32, ptr %5, align 4
  %21 = add i32 %20, 8
  %22 = call i32 @tvb_get_ntohl(ptr noundef %19, i32 noundef %21)
  %23 = icmp ne i32 %22, 2
  br i1 %23, label %24, label %25

24:                                               ; preds = %14
  store ptr null, ptr %3, align 8
  store i32 1, ptr %8, align 4
  br label %71

25:                                               ; preds = %14
  %26 = load ptr, ptr @rpc_progs, align 8
  %27 = load i32, ptr %6, align 4
  %28 = zext i32 %27 to i64
  %29 = inttoptr i64 %28 to ptr
  %30 = call ptr @g_hash_table_lookup(ptr noundef %26, ptr noundef %29)
  store ptr %30, ptr %7, align 8
  %31 = load ptr, ptr %7, align 8
  %32 = icmp eq ptr %31, null
  br i1 %32, label %33, label %69

33:                                               ; preds = %25
  call void @llvm.lifetime.start.p0(i64 4, ptr %9) #18
  %34 = load i8, ptr @rpc_dissect_unknown_programs, align 1, !range !6, !noundef !7
  %35 = trunc i8 %34 to i1
  br i1 %35, label %37, label %36

36:                                               ; preds = %33
  store ptr null, ptr %3, align 8
  store i32 1, ptr %8, align 4
  br label %66

37:                                               ; preds = %33
  %38 = load i32, ptr %6, align 4
  %39 = icmp eq i32 %38, 0
  br i1 %39, label %43, label %40

40:                                               ; preds = %37
  %41 = load i32, ptr %6, align 4
  %42 = icmp eq i32 %41, -1
  br i1 %42, label %43, label %44

43:                                               ; preds = %40, %37
  store ptr null, ptr %3, align 8
  store i32 1, ptr %8, align 4
  br label %66

44:                                               ; preds = %40
  %45 = load ptr, ptr %4, align 8
  %46 = load i32, ptr %5, align 4
  %47 = add i32 %46, 16
  %48 = call i32 @tvb_get_ntohl(ptr noundef %45, i32 noundef %47)
  store i32 %48, ptr %9, align 4
  %49 = load i32, ptr %9, align 4
  %50 = icmp ugt i32 %49, 10
  br i1 %50, label %51, label %52

51:                                               ; preds = %44
  store ptr null, ptr %3, align 8
  store i32 1, ptr %8, align 4
  br label %66

52:                                               ; preds = %44
  %53 = call ptr @wmem_packet_scope()
  %54 = call noalias ptr @wmem_alloc0(ptr noundef %53, i64 noundef 32) #22
  store ptr %54, ptr %7, align 8
  %55 = load i32, ptr @proto_rpc_unknown, align 4
  %56 = load ptr, ptr %7, align 8
  %57 = getelementptr inbounds nuw %struct._rpc_prog_info_value, ptr %56, i32 0, i32 1
  store i32 %55, ptr %57, align 8
  %58 = load i32, ptr @ett_rpc_unknown_program, align 4
  %59 = load ptr, ptr %7, align 8
  %60 = getelementptr inbounds nuw %struct._rpc_prog_info_value, ptr %59, i32 0, i32 2
  store i32 %58, ptr %60, align 4
  %61 = call ptr @wmem_packet_scope()
  %62 = load i32, ptr %6, align 4
  %63 = call noalias ptr (ptr, ptr, ...) @wmem_strdup_printf(ptr noundef %61, ptr noundef @.str.329, i32 noundef %62)
  %64 = load ptr, ptr %7, align 8
  %65 = getelementptr inbounds nuw %struct._rpc_prog_info_value, ptr %64, i32 0, i32 3
  store ptr %63, ptr %65, align 8
  store i32 0, ptr %8, align 4
  br label %66

66:                                               ; preds = %52, %51, %43, %36
  call void @llvm.lifetime.end.p0(i64 4, ptr %9) #18
  %67 = load i32, ptr %8, align 4
  switch i32 %67, label %71 [
    i32 0, label %68
  ]

68:                                               ; preds = %66
  br label %69

69:                                               ; preds = %68, %25
  %70 = load ptr, ptr %7, align 8
  store ptr %70, ptr %3, align 8
  store i32 1, ptr %8, align 4
  br label %71

71:                                               ; preds = %69, %66, %24, %13
  call void @llvm.lifetime.end.p0(i64 8, ptr %7) #18
  call void @llvm.lifetime.end.p0(i64 4, ptr %6) #18
  %72 = load ptr, ptr %3, align 8
  ret ptr %72
}