; Function Attrs: null_pointer_is_valid sspstrong uwtable
define internal fastcc ptr @looks_like_rpc_call(ptr noundef %0, i32 noundef %1) unnamed_addr #0 {
  %3 = tail call zeroext i1 @tvb_bytes_exist(ptr noundef %0, i32 noundef %1, i32 noundef 16)
  br i1 %3, label %4, label %.thread

4:                                                ; preds = %2
  %5 = add i32 %1, 12
  %6 = tail call i32 @tvb_get_ntohl(ptr noundef %0, i32 noundef %5)
  %7 = add i32 %1, 8
  %8 = tail call i32 @tvb_get_ntohl(ptr noundef %0, i32 noundef %7)
  %.not = icmp eq i32 %8, 2
  br i1 %.not, label %9, label %.thread

9:                                                ; preds = %4
  %10 = load ptr, ptr @rpc_progs, align 8
  %11 = zext i32 %6 to i64
  %12 = inttoptr i64 %11 to ptr
  %13 = tail call ptr @g_hash_table_lookup(ptr noundef %10, ptr noundef %12)
  %14 = icmp eq ptr %13, null
  br i1 %14, label %15, label %.thread

15:                                               ; preds = %9
  %16 = load i8, ptr @rpc_dissect_unknown_programs, align 1, !range !6, !noundef !7
  %17 = trunc nuw i8 %16 to i1
  %18 = add i32 %6, -1
  %or.cond = icmp ult i32 %18, -2
  %or.cond26.not = select i1 %17, i1 %or.cond, i1 false
  br i1 %or.cond26.not, label %19, label %.thread

19:                                               ; preds = %15
  %20 = add i32 %1, 16
  %21 = tail call i32 @tvb_get_ntohl(ptr noundef %0, i32 noundef %20)
  %22 = icmp ugt i32 %21, 10
  br i1 %22, label %.thread, label %23

23:                                               ; preds = %19
  %24 = tail call ptr @wmem_packet_scope()
  %25 = tail call noalias dereferenceable_or_null(32) ptr @wmem_alloc0(ptr noundef %24, i64 noundef 32) #20
  %26 = load i32, ptr @proto_rpc_unknown, align 4
  %27 = getelementptr inbounds nuw i8, ptr %25, i64 8
  store i32 %26, ptr %27, align 8
  %28 = load i32, ptr @ett_rpc_unknown_program, align 4
  %29 = getelementptr inbounds nuw i8, ptr %25, i64 12
  store i32 %28, ptr %29, align 4
  %30 = tail call ptr @wmem_packet_scope()
  %31 = tail call noalias ptr (ptr, ptr, ...) @wmem_strdup_printf(ptr noundef %30, ptr noundef nonnull @.str.329, i32 noundef %6)
  %32 = getelementptr inbounds nuw i8, ptr %25, i64 16
  store ptr %31, ptr %32, align 8
  br label %.thread

.thread:                                          ; preds = %19, %15, %23, %9, %4, %2
  %.0 = phi ptr [ null, %2 ], [ null, %4 ], [ %13, %9 ], [ %25, %23 ], [ null, %15 ], [ null, %19 ]
  ret ptr %.0
}